target datalayout = "e-m:e-p270:32:32-p271:32:32-p272:64:64-i64:64-i128:128-f80:128-n8:16:32:64-S128"
target triple = "x86_64-pc-linux-gnu"

%"class.duckdb::MetadataManager" = type { ptr, ptr, %"class.std::unordered_map", %"class.std::unordered_map.2" }
%"class.std::unordered_map" = type { %"class.std::_Hashtable" }
%"class.std::_Hashtable" = type { ptr, i64, %"struct.std::__detail::_Hash_node_base", i64, %"struct.std::__detail::_Prime_rehash_policy", ptr }
%"struct.std::__detail::_Hash_node_base" = type { ptr }
%"struct.std::__detail::_Prime_rehash_policy" = type { float, i64 }
%"class.std::unordered_map.2" = type { %"class.std::_Hashtable.3" }
%"class.std::_Hashtable.3" = type { ptr, i64, %"struct.std::__detail::_Hash_node_base", i64, %"struct.std::__detail::_Prime_rehash_policy", ptr }
%"struct.duckdb::MetadataHandle" = type { %"struct.duckdb::MetadataPointer", %"class.duckdb::BufferHandle" }
%"struct.duckdb::MetadataPointer" = type { i64 }
%"class.duckdb::BufferHandle" = type { %"class.duckdb::shared_ptr", %"class.duckdb::optional_ptr" }
%"class.duckdb::shared_ptr" = type { %"class.std::shared_ptr" }
%"class.std::shared_ptr" = type { %"class.std::__shared_ptr" }
%"class.std::__shared_ptr" = type { ptr, %"class.std::__shared_count" }
%"class.std::__shared_count" = type { ptr }
%"class.duckdb::optional_ptr" = type { ptr }
%"class.std::mutex" = type { %"class.std::__mutex_base" }
%"class.std::__mutex_base" = type { %union.pthread_mutex_t }
%union.pthread_mutex_t = type { %struct.__pthread_mutex_s }
%struct.__pthread_mutex_s = type { i32, i32, i32, i32, i32, i16, i16, %struct.__pthread_internal_list }
%struct.__pthread_internal_list = type { ptr, ptr }
%"class.duckdb::BlockManager" = type { ptr, ptr, %"class.std::mutex", %"class.std::unordered_map.16", %"class.duckdb::unique_ptr", %"class.duckdb::optional_idx" }
%"class.std::unordered_map.16" = type { %"class.std::_Hashtable.17" }
%"class.std::_Hashtable.17" = type { ptr, i64, %"struct.std::__detail::_Hash_node_base", i64, %"struct.std::__detail::_Prime_rehash_policy", ptr }
%"class.duckdb::unique_ptr" = type { %"class.std::unique_ptr" }
%"class.std::unique_ptr" = type { %"struct.std::__uniq_ptr_data" }
%"struct.std::__uniq_ptr_data" = type { %"class.std::__uniq_ptr_impl" }
%"class.std::__uniq_ptr_impl" = type { %"class.std::tuple" }
%"class.std::tuple" = type { %"struct.std::_Tuple_impl" }
%"struct.std::_Tuple_impl" = type { %"struct.std::_Head_base.31" }
%"struct.std::_Head_base.31" = type { ptr }
%"class.duckdb::optional_idx" = type { i64 }
%"class.duckdb::FileBuffer" = type { ptr, ptr, ptr, i64, i8, ptr, i64 }
%"class.duckdb::optional_ptr.85" = type { ptr }
%"class.duckdb::MetadataWriter" = type { %"class.duckdb::WriteStream", ptr, %"struct.duckdb::MetadataHandle", %"struct.duckdb::MetadataPointer", %"class.duckdb::optional_ptr.85", i64, i64 }
%"class.duckdb::WriteStream" = type { ptr }

; Function Attrs: inlinehint mustprogress nounwind uwtable
define linkonce_odr noundef i64 @_ZN6duckdb15AlignValueFloorImTnT_Lm8EEES1_S1_(i64 noundef %0) #1 comdat {
  %2 = alloca i64, align 8
  store i64 %0, ptr %2, align 8, !tbaa !16
  %3 = load i64, ptr %2, align 8, !tbaa !16
  %4 = udiv i64 %3, 8
  %5 = mul i64 %4, 8
  ret i64 %5
}

; Function Attrs: inlinehint mustprogress uwtable
define linkonce_odr noundef i64 @_ZNK6duckdb12BlockManager12GetBlockSizeEv(ptr noundef nonnull align 8 dereferenceable(128) %0) #4 comdat align 2 {
  %2 = alloca ptr, align 8
  store ptr %0, ptr %2, align 8, !tbaa !8
  %3 = load ptr, ptr %2, align 8
  %4 = getelementptr inbounds nuw %"class.duckdb::BlockManager", ptr %3, i32 0, i32 5
  %5 = call noundef i64 @_ZNK6duckdb12optional_idx8GetIndexEv(ptr noundef nonnull align 8 dereferenceable(8) %4)
  %6 = sub i64 %5, 8
  ret i64 %6
}

; Function Attrs: mustprogress uwtable
define linkonce_odr noundef ptr @_ZN6duckdb12optional_ptrINS_10FileBufferELb1EEptEv(ptr noundef nonnull align 8 dereferenceable(8) %0) #2 comdat align 2 {
  %2 = alloca ptr, align 8
  store ptr %0, ptr %2, align 8, !tbaa !307
  %3 = load ptr, ptr %2, align 8
  call void @_ZNK6duckdb12optional_ptrINS_10FileBufferELb1EE10CheckValidEv(ptr noundef nonnull align 8 dereferenceable(8) %3)
  %4 = getelementptr inbounds nuw %"class.duckdb::optional_ptr", ptr %3, i32 0, i32 0
  %5 = load ptr, ptr %4, align 8, !tbaa !309
  ret ptr %5
}

; Function Attrs: mustprogress uwtable
define noundef i64 @_ZNK6duckdb15MetadataManager20GetMetadataBlockSizeEv(ptr noundef nonnull align 8 dereferenceable(128) %0) #2 align 2 {
  %2 = alloca ptr, align 8
  store ptr %0, ptr %2, align 8, !tbaa !3
  %3 = load ptr, ptr %2, align 8
  %4 = getelementptr inbounds nuw %"class.duckdb::MetadataManager", ptr %3, i32 0, i32 0
  %5 = load ptr, ptr %4, align 8, !tbaa !47
  %6 = call noundef i64 @_ZNK6duckdb12BlockManager12GetBlockSizeEv(ptr noundef nonnull align 8 dereferenceable(128) %5)
  %7 = udiv i64 %6, 64
  %8 = call noundef i64 @_ZN6duckdb15AlignValueFloorImTnT_Lm8EEES1_S1_(i64 noundef %7)
  ret i64 %8
}

; Function Attrs: mustprogress nounwind uwtable
define linkonce_odr noundef nonnull align 8 dereferenceable(128) ptr @_ZN6duckdb14MetadataWriter10GetManagerEv(ptr noundef nonnull align 8 dereferenceable(80) %0) #0 comdat align 2 {
  %2 = alloca ptr, align 8
  store ptr %0, ptr %2, align 8, !tbaa !229
  %3 = load ptr, ptr %2, align 8
  %4 = getelementptr inbounds nuw %"class.duckdb::MetadataWriter", ptr %3, i32 0, i32 1
  %5 = load ptr, ptr %4, align 8, !tbaa !235
  ret ptr %5
}

; Function Attrs: inlinehint mustprogress uwtable
define linkonce_odr noundef ptr @_ZN6duckdb12BufferHandle3PtrEv(ptr noundef nonnull align 8 dereferenceable(24) %0) #4 comdat align 2 {
  %2 = alloca ptr, align 8
  store ptr %0, ptr %2, align 8, !tbaa !108
  %3 = load ptr, ptr %2, align 8
  %4 = getelementptr inbounds nuw %"class.duckdb::BufferHandle", ptr %3, i32 0, i32 1
  %5 = call noundef ptr @_ZN6duckdb12optional_ptrINS_10FileBufferELb1EEptEv(ptr noundef nonnull align 8 dereferenceable(8) %4)
  %6 = getelementptr inbounds nuw %"class.duckdb::FileBuffer", ptr %5, i32 0, i32 2
  %7 = load ptr, ptr %6, align 8, !tbaa !110
  ret ptr %7
}

; Function Attrs: mustprogress uwtable
define noundef ptr @_ZN6duckdb14MetadataWriter7BasePtrEv(ptr noundef nonnull align 8 dereferenceable(80) %0) #2 align 2 {
  %2 = alloca ptr, align 8
  store ptr %0, ptr %2, align 8, !tbaa !229
  %3 = load ptr, ptr %2, align 8
  %4 = getelementptr inbounds nuw %"class.duckdb::MetadataWriter", ptr %3, i32 0, i32 2
  %5 = getelementptr inbounds nuw %"struct.duckdb::MetadataHandle", ptr %4, i32 0, i32 1
  %6 = call noundef ptr @_ZN6duckdb12BufferHandle3PtrEv(ptr noundef nonnull align 8 dereferenceable(24) %5)
  %7 = getelementptr inbounds nuw %"class.duckdb::MetadataWriter", ptr %3, i32 0, i32 3
  %8 = load i64, ptr %7, align 8
  %9 = lshr i64 %8, 56
  %10 = trunc i64 %9 to i8
  %11 = zext i8 %10 to i64
  %12 = call noundef nonnull align 8 dereferenceable(128) ptr @_ZN6duckdb14MetadataWriter10GetManagerEv(ptr noundef nonnull align 8 dereferenceable(80) %3)
  %13 = call noundef i64 @_ZNK6duckdb15MetadataManager20GetMetadataBlockSizeEv(ptr noundef nonnull align 8 dereferenceable(128) %12)
  %14 = mul i64 %11, %13
  %15 = getelementptr inbounds nuw i8, ptr %6, i64 %14
  ret ptr %15
}

; Function Attrs: mustprogress uwtable
define noundef ptr @_ZN6duckdb14MetadataWriter3PtrEv(ptr noundef nonnull align 8 dereferenceable(80) %0) #2 align 2 {
  %2 = alloca ptr, align 8
  store ptr %0, ptr %2, align 8, !tbaa !229
  %3 = load ptr, ptr %2, align 8
  %4 = call noundef ptr @_ZN6duckdb14MetadataWriter7BasePtrEv(ptr noundef nonnull align 8 dereferenceable(80) %3)
  %5 = getelementptr inbounds nuw %"class.duckdb::MetadataWriter", ptr %3, i32 0, i32 6
  %6 = load i64, ptr %5, align 8, !tbaa !234
  %7 = getelementptr inbounds nuw i8, ptr %4, i64 %6
  ret ptr %7
}

; Function Attrs: mustprogress uwtable
define void @_ZN6duckdb14MetadataWriter9WriteDataEPKhm(ptr noundef nonnull align 8 dereferenceable(80) %0, ptr noundef %1, i64 noundef %2) unnamed_addr #2 align 2 {
  %4 = alloca ptr, align 8
  %5 = alloca ptr, align 8
  %6 = alloca i64, align 8
  %7 = alloca i64, align 8
  store ptr %0, ptr %4, align 8, !tbaa !229
  store ptr %1, ptr %5, align 8, !tbaa !113
  store i64 %2, ptr %6, align 8, !tbaa !16
  %8 = load ptr, ptr %4, align 8
  br label %9

9:                                                ; preds = %39, %3
  %10 = getelementptr inbounds nuw %"class.duckdb::MetadataWriter", ptr %8, i32 0, i32 6
  %11 = load i64, ptr %10, align 8, !tbaa !234
  %12 = load i64, ptr %6, align 8, !tbaa !16
  %13 = add i64 %11, %12
  %14 = getelementptr inbounds nuw %"class.duckdb::MetadataWriter", ptr %8, i32 0, i32 5
  %15 = load i64, ptr %14, align 8, !tbaa !231
  %16 = icmp ugt i64 %13, %15
  br i1 %16, label %17, label %40

17:                                               ; preds = %9
  call void @llvm.lifetime.start.p0(i64 8, ptr %7) #19
  %18 = getelementptr inbounds nuw %"class.duckdb::MetadataWriter", ptr %8, i32 0, i32 5
  %19 = load i64, ptr %18, align 8, !tbaa !231
  %20 = getelementptr inbounds nuw %"class.duckdb::MetadataWriter", ptr %8, i32 0, i32 6
  %21 = load i64, ptr %20, align 8, !tbaa !234
  %22 = sub i64 %19, %21
  store i64 %22, ptr %7, align 8, !tbaa !16
  %23 = load i64, ptr %7, align 8, !tbaa !16
  %24 = icmp ugt i64 %23, 0
  br i1 %24, label %25, label %39

25:                                               ; preds = %17
  %26 = call noundef ptr @_ZN6duckdb14MetadataWriter3PtrEv(ptr noundef nonnull align 8 dereferenceable(80) %8)
  %27 = load ptr, ptr %5, align 8, !tbaa !113
  %28 = load i64, ptr %7, align 8, !tbaa !16
  call void @llvm.memcpy.p0.p0.i64(ptr align 1 %26, ptr align 1 %27, i64 %28, i1 false)
  %29 = load i64, ptr %7, align 8, !tbaa !16
  %30 = load ptr, ptr %5, align 8, !tbaa !113
  %31 = getelementptr inbounds nuw i8, ptr %30, i64 %29
  store ptr %31, ptr %5, align 8, !tbaa !113
  %32 = load i64, ptr %7, align 8, !tbaa !16
  %33 = getelementptr inbounds nuw %"class.duckdb::MetadataWriter", ptr %8, i32 0, i32 6
  %34 = load i64, ptr %33, align 8, !tbaa !234
  %35 = add i64 %34, %32
  store i64 %35, ptr %33, align 8, !tbaa !234
  %36 = load i64, ptr %7, align 8, !tbaa !16
  %37 = load i64, ptr %6, align 8, !tbaa !16
  %38 = sub i64 %37, %36
  store i64 %38, ptr %6, align 8, !tbaa !16
  br label %39

39:                                               ; preds = %25, %17
  call void @_ZN6duckdb14MetadataWriter9NextBlockEv(ptr noundef nonnull align 8 dereferenceable(80) %8)
  call void @llvm.lifetime.end.p0(i64 8, ptr %7) #19
  br label %9, !llvm.loop !236

40:                                               ; preds = %9
  %41 = call noundef ptr @_ZN6duckdb14MetadataWriter3PtrEv(ptr noundef nonnull align 8 dereferenceable(80) %8)
  %42 = load ptr, ptr %5, align 8, !tbaa !113
  %43 = load i64, ptr %6, align 8, !tbaa !16
  call void @llvm.memcpy.p0.p0.i64(ptr align 1 %41, ptr align 1 %42, i64 %43, i1 false)
  %44 = load i64, ptr %6, align 8, !tbaa !16
  %45 = getelementptr inbounds nuw %"class.duckdb::MetadataWriter", ptr %8, i32 0, i32 6
  %46 = load i64, ptr %45, align 8, !tbaa !234
  %47 = add i64 %46, %44
  store i64 %47, ptr %45, align 8, !tbaa !234
  ret void
}