; Function Attrs: mustprogress uwtable
define void @_ZN6duckdb14MetadataWriter9WriteDataEPKhm(ptr noundef nonnull align 8 dereferenceable(80) %0, ptr noundef readonly captures(none) %1, i64 noundef %2) unnamed_addr #2 align 2 {
  %4 = getelementptr inbounds nuw i8, ptr %0, i64 72
  %5 = getelementptr inbounds nuw i8, ptr %0, i64 64
  %6 = load i64, ptr %4, align 8, !tbaa !214
  %7 = add i64 %6, %2
  %8 = load i64, ptr %5, align 8, !tbaa !217
  %9 = icmp ugt i64 %7, %8
  br i1 %9, label %.lr.ph, label %._crit_edge

.lr.ph:                                           ; preds = %3
  %10 = getelementptr inbounds nuw i8, ptr %0, i64 40
  %11 = getelementptr inbounds nuw i8, ptr %0, i64 48
  %12 = getelementptr inbounds nuw i8, ptr %0, i64 8
  br label %13

13:                                               ; preds = %.lr.ph, %38
  %14 = phi i64 [ %8, %.lr.ph ], [ %41, %38 ]
  %15 = phi i64 [ %6, %.lr.ph ], [ %39, %38 ]
  %.017 = phi ptr [ %1, %.lr.ph ], [ %.1, %38 ]
  %.01216 = phi i64 [ %2, %.lr.ph ], [ %.113, %38 ]
  %.not = icmp eq i64 %14, %15
  br i1 %.not, label %38, label %16

16:                                               ; preds = %13
  %17 = sub i64 %14, %15
  tail call void @_ZNK6duckdb12optional_ptrINS_10FileBufferELb1EE10CheckValidEv(ptr noundef nonnull align 8 dereferenceable(8) %10)
  %18 = load ptr, ptr %10, align 8, !tbaa !104
  %19 = getelementptr inbounds nuw i8, ptr %18, i64 16
  %20 = load ptr, ptr %19, align 8, !tbaa !106
  %21 = load i64, ptr %11, align 8
  %22 = lshr i64 %21, 56
  %23 = load ptr, ptr %12, align 8, !tbaa !218
  %24 = load ptr, ptr %23, align 8, !tbaa !43
  %25 = getelementptr inbounds nuw i8, ptr %24, i64 120
  %26 = tail call noundef i64 @_ZNK6duckdb12optional_idx8GetIndexEv(ptr noundef nonnull align 8 dereferenceable(8) %25)
  %27 = add i64 %26, -8
  %28 = lshr i64 %27, 6
  %29 = and i64 %28, 288230376151711736
  %30 = mul i64 %29, %22
  %31 = getelementptr inbounds nuw i8, ptr %20, i64 %30
  %32 = load i64, ptr %4, align 8, !tbaa !214
  %33 = getelementptr inbounds nuw i8, ptr %31, i64 %32
  tail call void @llvm.memcpy.p0.p0.i64(ptr align 1 %33, ptr align 1 %.017, i64 %17, i1 false)
  %34 = getelementptr inbounds nuw i8, ptr %.017, i64 %17
  %35 = load i64, ptr %4, align 8, !tbaa !214
  %36 = add i64 %35, %17
  store i64 %36, ptr %4, align 8, !tbaa !214
  %37 = sub i64 %.01216, %17
  br label %38

38:                                               ; preds = %16, %13
  %.113 = phi i64 [ %37, %16 ], [ %.01216, %13 ]
  %.1 = phi ptr [ %34, %16 ], [ %.017, %13 ]
  tail call void @_ZN6duckdb14MetadataWriter9NextBlockEv(ptr noundef nonnull align 8 dereferenceable(80) %0)
  %39 = load i64, ptr %4, align 8, !tbaa !214
  %40 = add i64 %39, %.113
  %41 = load i64, ptr %5, align 8, !tbaa !217
  %42 = icmp ugt i64 %40, %41
  br i1 %42, label %13, label %._crit_edge, !llvm.loop !223

._crit_edge:                                      ; preds = %38, %3
  %.012.lcssa = phi i64 [ %2, %3 ], [ %.113, %38 ]
  %.0.lcssa = phi ptr [ %1, %3 ], [ %.1, %38 ]
  %43 = getelementptr inbounds nuw i8, ptr %0, i64 40
  tail call void @_ZNK6duckdb12optional_ptrINS_10FileBufferELb1EE10CheckValidEv(ptr noundef nonnull align 8 dereferenceable(8) %43)
  %44 = load ptr, ptr %43, align 8, !tbaa !104
  %45 = getelementptr inbounds nuw i8, ptr %44, i64 16
  %46 = load ptr, ptr %45, align 8, !tbaa !106
  %47 = getelementptr inbounds nuw i8, ptr %0, i64 48
  %48 = load i64, ptr %47, align 8
  %49 = lshr i64 %48, 56
  %50 = getelementptr inbounds nuw i8, ptr %0, i64 8
  %51 = load ptr, ptr %50, align 8, !tbaa !218
  %52 = load ptr, ptr %51, align 8, !tbaa !43
  %53 = getelementptr inbounds nuw i8, ptr %52, i64 120
  %54 = tail call noundef i64 @_ZNK6duckdb12optional_idx8GetIndexEv(ptr noundef nonnull align 8 dereferenceable(8) %53)
  %55 = add i64 %54, -8
  %56 = lshr i64 %55, 6
  %57 = and i64 %56, 288230376151711736
  %58 = mul i64 %57, %49
  %59 = getelementptr inbounds nuw i8, ptr %46, i64 %58
  %60 = load i64, ptr %4, align 8, !tbaa !214
  %61 = getelementptr inbounds nuw i8, ptr %59, i64 %60
  tail call void @llvm.memcpy.p0.p0.i64(ptr align 1 %61, ptr align 1 %.0.lcssa, i64 %.012.lcssa, i1 false)
  %62 = load i64, ptr %4, align 8, !tbaa !214
  %63 = add i64 %62, %.012.lcssa
  store i64 %63, ptr %4, align 8, !tbaa !214
  ret void
}